(lp0
S'poi'
p1
aS'salary'
p2
aS'bonus'
p3
aS'long_term_incentive'
p4
aS'deferral_payments'
p5
aS'expenses'
p6
aS'restricted_stock_deferred'
p7
aS'restricted_stock'
p8
aS'deferred_income'
p9
aS'total_payments'
p10
aS'other'
p11
aS'from_poi_to_this_person'
p12
aS'from_this_person_to_poi'
p13
aS'to_messages'
p14
aS'from_messages'
p15
aS'shared_receipt_with_poi'
p16
aS'loan_advances'
p17
aS'director_fees'
p18
aS'exercised_stock_options'
p19
aS'total_stock_value'
p20
ag8
aS'bonus-to-salary_ratio'
p21
aS'from_poi_ratio'
p22
aS'to_poi_ratio'
p23
a.